target datalayout = "e-m:e-p270:32:32-p271:32:32-p272:64:64-i64:64-i128:128-f80:128-n8:16:32:64-S128"
target triple = "x86_64-pc-linux-gnu"

%struct.FSMPageData = type { i32, [0 x i8] }

; Function Attrs: nounwind uwtable
define dso_local zeroext i1 @fsm_rebuild_page(ptr noundef %0) #0 {
  %2 = alloca ptr, align 8
  %3 = alloca ptr, align 8
  %4 = alloca i8, align 1
  %5 = alloca i32, align 4
  %6 = alloca i32, align 4
  %7 = alloca i32, align 4
  %8 = alloca i8, align 1
  store ptr %0, ptr %2, align 8
  call void @llvm.lifetime.start.p0(i64 8, ptr %3) #5
  %9 = load ptr, ptr %2, align 8
  %10 = call ptr @PageGetContents(ptr noundef %9)
  store ptr %10, ptr %3, align 8
  call void @llvm.lifetime.start.p0(i64 1, ptr %4) #5
  store i8 0, ptr %4, align 1
  call void @llvm.lifetime.start.p0(i64 4, ptr %5) #5
  store i32 4094, ptr %5, align 4
  br label %11

11:                                               ; preds = %78, %1
  %12 = load i32, ptr %5, align 4
  %13 = icmp sge i32 %12, 0
  br i1 %13, label %14, label %81

14:                                               ; preds = %11
  call void @llvm.lifetime.start.p0(i64 4, ptr %6) #5
  %15 = load i32, ptr %5, align 4
  %16 = mul i32 2, %15
  %17 = add i32 %16, 1
  store i32 %17, ptr %6, align 4
  call void @llvm.lifetime.start.p0(i64 4, ptr %7) #5
  %18 = load i32, ptr %6, align 4
  %19 = add i32 %18, 1
  store i32 %19, ptr %7, align 4
  call void @llvm.lifetime.start.p0(i64 1, ptr %8) #5
  store i8 0, ptr %8, align 1
  %20 = load i32, ptr %6, align 4
  %21 = sext i32 %20 to i64
  %22 = icmp ult i64 %21, 8164
  br i1 %22, label %23, label %30

23:                                               ; preds = %14
  %24 = load ptr, ptr %3, align 8
  %25 = getelementptr inbounds nuw %struct.FSMPageData, ptr %24, i32 0, i32 1
  %26 = load i32, ptr %6, align 4
  %27 = sext i32 %26 to i64
  %28 = getelementptr inbounds [0 x i8], ptr %25, i64 0, i64 %27
  %29 = load i8, ptr %28, align 1
  store i8 %29, ptr %8, align 1
  br label %30

30:                                               ; preds = %23, %14
  %31 = load i32, ptr %7, align 4
  %32 = sext i32 %31 to i64
  %33 = icmp ult i64 %32, 8164
  br i1 %33, label %34, label %59

34:                                               ; preds = %30
  %35 = load i8, ptr %8, align 1
  %36 = zext i8 %35 to i32
  %37 = load ptr, ptr %3, align 8
  %38 = getelementptr inbounds nuw %struct.FSMPageData, ptr %37, i32 0, i32 1
  %39 = load i32, ptr %7, align 4
  %40 = sext i32 %39 to i64
  %41 = getelementptr inbounds [0 x i8], ptr %38, i64 0, i64 %40
  %42 = load i8, ptr %41, align 1
  %43 = zext i8 %42 to i32
  %44 = icmp sgt i32 %36, %43
  br i1 %44, label %45, label %48

45:                                               ; preds = %34
  %46 = load i8, ptr %8, align 1
  %47 = zext i8 %46 to i32
  br label %56

48:                                               ; preds = %34
  %49 = load ptr, ptr %3, align 8
  %50 = getelementptr inbounds nuw %struct.FSMPageData, ptr %49, i32 0, i32 1
  %51 = load i32, ptr %7, align 4
  %52 = sext i32 %51 to i64
  %53 = getelementptr inbounds [0 x i8], ptr %50, i64 0, i64 %52
  %54 = load i8, ptr %53, align 1
  %55 = zext i8 %54 to i32
  br label %56

56:                                               ; preds = %48, %45
  %57 = phi i32 [ %47, %45 ], [ %55, %48 ]
  %58 = trunc i32 %57 to i8
  store i8 %58, ptr %8, align 1
  br label %59

59:                                               ; preds = %56, %30
  %60 = load ptr, ptr %3, align 8
  %61 = getelementptr inbounds nuw %struct.FSMPageData, ptr %60, i32 0, i32 1
  %62 = load i32, ptr %5, align 4
  %63 = sext i32 %62 to i64
  %64 = getelementptr inbounds [0 x i8], ptr %61, i64 0, i64 %63
  %65 = load i8, ptr %64, align 1
  %66 = zext i8 %65 to i32
  %67 = load i8, ptr %8, align 1
  %68 = zext i8 %67 to i32
  %69 = icmp ne i32 %66, %68
  br i1 %69, label %70, label %77

70:                                               ; preds = %59
  %71 = load i8, ptr %8, align 1
  %72 = load ptr, ptr %3, align 8
  %73 = getelementptr inbounds nuw %struct.FSMPageData, ptr %72, i32 0, i32 1
  %74 = load i32, ptr %5, align 4
  %75 = sext i32 %74 to i64
  %76 = getelementptr inbounds [0 x i8], ptr %73, i64 0, i64 %75
  store i8 %71, ptr %76, align 1
  store i8 1, ptr %4, align 1
  br label %77

77:                                               ; preds = %70, %59
  call void @llvm.lifetime.end.p0(i64 1, ptr %8) #5
  call void @llvm.lifetime.end.p0(i64 4, ptr %7) #5
  call void @llvm.lifetime.end.p0(i64 4, ptr %6) #5
  br label %78

78:                                               ; preds = %77
  %79 = load i32, ptr %5, align 4
  %80 = add i32 %79, -1
  store i32 %80, ptr %5, align 4
  br label %11, !llvm.loop !6

81:                                               ; preds = %11
  %82 = load i8, ptr %4, align 1, !range !7, !noundef !8
  %83 = trunc i8 %82 to i1
  call void @llvm.lifetime.end.p0(i64 4, ptr %5) #5
  call void @llvm.lifetime.end.p0(i64 1, ptr %4) #5
  call void @llvm.lifetime.end.p0(i64 8, ptr %3) #5
  ret i1 %83
}

; Function Attrs: inlinehint nounwind uwtable
define internal ptr @PageGetContents(ptr noundef %0) #2 {
  %2 = alloca ptr, align 8
  store ptr %0, ptr %2, align 8
  %3 = load ptr, ptr %2, align 8
  %4 = getelementptr inbounds nuw i8, ptr %3, i64 24
  ret ptr %4
}

; Function Attrs: nounwind uwtable
define dso_local zeroext i1 @fsm_set_avail(ptr noundef %0, i32 noundef %1, i8 noundef zeroext %2) #0 {
  %4 = alloca i1, align 1
  %5 = alloca ptr, align 8
  %6 = alloca i32, align 4
  %7 = alloca i8, align 1
  %8 = alloca i32, align 4
  %9 = alloca ptr, align 8
  %10 = alloca i8, align 1
  %11 = alloca i32, align 4
  %12 = alloca i8, align 1
  %13 = alloca i32, align 4
  %14 = alloca i32, align 4
  store ptr %0, ptr %5, align 8
  store i32 %1, ptr %6, align 4
  store i8 %2, ptr %7, align 1
  call void @llvm.lifetime.start.p0(i64 4, ptr %8) #5
  %15 = load i32, ptr %6, align 4
  %16 = add i32 4095, %15
  store i32 %16, ptr %8, align 4
  call void @llvm.lifetime.start.p0(i64 8, ptr %9) #5
  %17 = load ptr, ptr %5, align 8
  %18 = call ptr @PageGetContents(ptr noundef %17)
  store ptr %18, ptr %9, align 8
  call void @llvm.lifetime.start.p0(i64 1, ptr %10) #5
  %19 = load ptr, ptr %9, align 8
  %20 = getelementptr inbounds nuw %struct.FSMPageData, ptr %19, i32 0, i32 1
  %21 = load i32, ptr %8, align 4
  %22 = sext i32 %21 to i64
  %23 = getelementptr inbounds [0 x i8], ptr %20, i64 0, i64 %22
  %24 = load i8, ptr %23, align 1
  store i8 %24, ptr %10, align 1
  %25 = load i8, ptr %10, align 1
  %26 = zext i8 %25 to i32
  %27 = load i8, ptr %7, align 1
  %28 = zext i8 %27 to i32
  %29 = icmp eq i32 %26, %28
  br i1 %29, label %30, label %40

30:                                               ; preds = %3
  %31 = load i8, ptr %7, align 1
  %32 = zext i8 %31 to i32
  %33 = load ptr, ptr %9, align 8
  %34 = getelementptr inbounds nuw %struct.FSMPageData, ptr %33, i32 0, i32 1
  %35 = getelementptr inbounds [0 x i8], ptr %34, i64 0, i64 0
  %36 = load i8, ptr %35, align 4
  %37 = zext i8 %36 to i32
  %38 = icmp sle i32 %32, %37
  br i1 %38, label %39, label %40

39:                                               ; preds = %30
  store i1 false, ptr %4, align 1
  store i32 1, ptr %11, align 4
  br label %129

40:                                               ; preds = %30, %3
  %41 = load i8, ptr %7, align 1
  %42 = load ptr, ptr %9, align 8
  %43 = getelementptr inbounds nuw %struct.FSMPageData, ptr %42, i32 0, i32 1
  %44 = load i32, ptr %8, align 4
  %45 = sext i32 %44 to i64
  %46 = getelementptr inbounds [0 x i8], ptr %43, i64 0, i64 %45
  store i8 %41, ptr %46, align 1
  br label %47

47:                                               ; preds = %113, %40
  call void @llvm.lifetime.start.p0(i64 1, ptr %12) #5
  store i8 0, ptr %12, align 1
  call void @llvm.lifetime.start.p0(i64 4, ptr %13) #5
  call void @llvm.lifetime.start.p0(i64 4, ptr %14) #5
  %48 = load i32, ptr %8, align 4
  %49 = sub i32 %48, 1
  %50 = sdiv i32 %49, 2
  store i32 %50, ptr %8, align 4
  %51 = load i32, ptr %8, align 4
  %52 = mul i32 2, %51
  %53 = add i32 %52, 1
  store i32 %53, ptr %13, align 4
  %54 = load i32, ptr %13, align 4
  %55 = add i32 %54, 1
  store i32 %55, ptr %14, align 4
  %56 = load ptr, ptr %9, align 8
  %57 = getelementptr inbounds nuw %struct.FSMPageData, ptr %56, i32 0, i32 1
  %58 = load i32, ptr %13, align 4
  %59 = sext i32 %58 to i64
  %60 = getelementptr inbounds [0 x i8], ptr %57, i64 0, i64 %59
  %61 = load i8, ptr %60, align 1
  store i8 %61, ptr %12, align 1
  %62 = load i32, ptr %14, align 4
  %63 = sext i32 %62 to i64
  %64 = icmp ult i64 %63, 8164
  br i1 %64, label %65, label %90

65:                                               ; preds = %47
  %66 = load i8, ptr %12, align 1
  %67 = zext i8 %66 to i32
  %68 = load ptr, ptr %9, align 8
  %69 = getelementptr inbounds nuw %struct.FSMPageData, ptr %68, i32 0, i32 1
  %70 = load i32, ptr %14, align 4
  %71 = sext i32 %70 to i64
  %72 = getelementptr inbounds [0 x i8], ptr %69, i64 0, i64 %71
  %73 = load i8, ptr %72, align 1
  %74 = zext i8 %73 to i32
  %75 = icmp sgt i32 %67, %74
  br i1 %75, label %76, label %79

76:                                               ; preds = %65
  %77 = load i8, ptr %12, align 1
  %78 = zext i8 %77 to i32
  br label %87

79:                                               ; preds = %65
  %80 = load ptr, ptr %9, align 8
  %81 = getelementptr inbounds nuw %struct.FSMPageData, ptr %80, i32 0, i32 1
  %82 = load i32, ptr %14, align 4
  %83 = sext i32 %82 to i64
  %84 = getelementptr inbounds [0 x i8], ptr %81, i64 0, i64 %83
  %85 = load i8, ptr %84, align 1
  %86 = zext i8 %85 to i32
  br label %87

87:                                               ; preds = %79, %76
  %88 = phi i32 [ %78, %76 ], [ %86, %79 ]
  %89 = trunc i32 %88 to i8
  store i8 %89, ptr %12, align 1
  br label %90

90:                                               ; preds = %87, %47
  %91 = load ptr, ptr %9, align 8
  %92 = getelementptr inbounds nuw %struct.FSMPageData, ptr %91, i32 0, i32 1
  %93 = load i32, ptr %8, align 4
  %94 = sext i32 %93 to i64
  %95 = getelementptr inbounds [0 x i8], ptr %92, i64 0, i64 %94
  %96 = load i8, ptr %95, align 1
  store i8 %96, ptr %10, align 1
  %97 = load i8, ptr %10, align 1
  %98 = zext i8 %97 to i32
  %99 = load i8, ptr %12, align 1
  %100 = zext i8 %99 to i32
  %101 = icmp eq i32 %98, %100
  br i1 %101, label %102, label %103

102:                                              ; preds = %90
  store i32 2, ptr %11, align 4
  br label %110

103:                                              ; preds = %90
  %104 = load i8, ptr %12, align 1
  %105 = load ptr, ptr %9, align 8
  %106 = getelementptr inbounds nuw %struct.FSMPageData, ptr %105, i32 0, i32 1
  %107 = load i32, ptr %8, align 4
  %108 = sext i32 %107 to i64
  %109 = getelementptr inbounds [0 x i8], ptr %106, i64 0, i64 %108
  store i8 %104, ptr %109, align 1
  store i32 0, ptr %11, align 4
  br label %110

110:                                              ; preds = %103, %102
  call void @llvm.lifetime.end.p0(i64 4, ptr %14) #5
  call void @llvm.lifetime.end.p0(i64 4, ptr %13) #5
  call void @llvm.lifetime.end.p0(i64 1, ptr %12) #5
  %111 = load i32, ptr %11, align 4
  switch i32 %111, label %131 [
    i32 0, label %112
    i32 2, label %116
  ]

112:                                              ; preds = %110
  br label %113

113:                                              ; preds = %112
  %114 = load i32, ptr %8, align 4
  %115 = icmp sgt i32 %114, 0
  br i1 %115, label %47, label %116, !llvm.loop !4

116:                                              ; preds = %113, %110
  %117 = load i8, ptr %7, align 1
  %118 = zext i8 %117 to i32
  %119 = load ptr, ptr %9, align 8
  %120 = getelementptr inbounds nuw %struct.FSMPageData, ptr %119, i32 0, i32 1
  %121 = getelementptr inbounds [0 x i8], ptr %120, i64 0, i64 0
  %122 = load i8, ptr %121, align 4
  %123 = zext i8 %122 to i32
  %124 = icmp sgt i32 %118, %123
  br i1 %124, label %125, label %128

125:                                              ; preds = %116
  %126 = load ptr, ptr %5, align 8
  %127 = call zeroext i1 @fsm_rebuild_page(ptr noundef %126)
  br label %128

128:                                              ; preds = %125, %116
  store i1 true, ptr %4, align 1
  store i32 1, ptr %11, align 4
  br label %129

129:                                              ; preds = %128, %39
  call void @llvm.lifetime.end.p0(i64 1, ptr %10) #5
  call void @llvm.lifetime.end.p0(i64 8, ptr %9) #5
  call void @llvm.lifetime.end.p0(i64 4, ptr %8) #5
  %130 = load i1, ptr %4, align 1
  ret i1 %130

131:                                              ; preds = %110
  unreachable
}