; Function Attrs: nofree norecurse nosync nounwind memory(argmem: readwrite) uwtable
define dso_local noundef zeroext i1 @fsm_set_avail(ptr noundef captures(none) %0, i32 noundef %1, i8 noundef zeroext %2) local_unnamed_addr #0 {
  %4 = add i32 %1, 4095
  %5 = getelementptr inbounds nuw i8, ptr %0, i64 28
  %6 = sext i32 %4 to i64
  %7 = getelementptr inbounds [0 x i8], ptr %5, i64 0, i64 %6
  %8 = load i8, ptr %7, align 1
  %9 = icmp eq i8 %8, %2
  br i1 %9, label %10, label %12

10:                                               ; preds = %3
  %11 = load i8, ptr %5, align 4
  %.not = icmp ugt i8 %2, %11
  br i1 %.not, label %12, label %fsm_rebuild_page.exit

12:                                               ; preds = %10, %3
  store i8 %2, ptr %7, align 1
  br label %13

13:                                               ; preds = %32, %12
  %.035 = phi i32 [ %4, %12 ], [ %15, %32 ]
  %14 = add i32 %.035, -1
  %15 = sdiv i32 %14, 2
  %16 = shl nsw i32 %15, 1
  %17 = or disjoint i32 %16, 1
  %18 = add i32 %16, 2
  %19 = sext i32 %17 to i64
  %20 = getelementptr inbounds [0 x i8], ptr %5, i64 0, i64 %19
  %21 = load i8, ptr %20, align 1
  %22 = icmp ult i32 %18, 8164
  br i1 %22, label %23, label %27

23:                                               ; preds = %13
  %24 = zext nneg i32 %18 to i64
  %25 = getelementptr inbounds nuw [0 x i8], ptr %5, i64 0, i64 %24
  %26 = load i8, ptr %25, align 1
  %. = tail call i8 @llvm.umax.i8(i8 %21, i8 %26)
  br label %27

27:                                               ; preds = %23, %13
  %.036 = phi i8 [ %., %23 ], [ %21, %13 ]
  %28 = sext i32 %15 to i64
  %29 = getelementptr inbounds [0 x i8], ptr %5, i64 0, i64 %28
  %30 = load i8, ptr %29, align 1
  %31 = icmp eq i8 %30, %.036
  br i1 %31, label %.thread, label %32

32:                                               ; preds = %27
  store i8 %.036, ptr %29, align 1
  %33 = icmp sgt i32 %14, 1
  br i1 %33, label %13, label %.thread, !llvm.loop !4

.thread:                                          ; preds = %27, %32
  %34 = load i8, ptr %5, align 4
  %35 = icmp ugt i8 %2, %34
  br i1 %35, label %.preheader, label %fsm_rebuild_page.exit

.preheader:                                       ; preds = %.thread, %49
  %indvars.iv.i = phi i64 [ %indvars.iv.next.i, %49 ], [ 4094, %.thread ]
  %36 = shl nuw i64 %indvars.iv.i, 1
  %37 = add nuw nsw i64 %36, 2
  %38 = icmp samesign ult i64 %indvars.iv.i, 4082
  br i1 %38, label %39, label %.thread.i

39:                                               ; preds = %.preheader
  %40 = or disjoint i64 %36, 1
  %41 = getelementptr inbounds nuw [0 x i8], ptr %5, i64 0, i64 %40
  %42 = load i8, ptr %41, align 1
  %.not32.i = icmp eq i64 %indvars.iv.i, 4081
  br i1 %.not32.i, label %.thread.i, label %43

43:                                               ; preds = %39
  %44 = getelementptr inbounds nuw [0 x i8], ptr %5, i64 0, i64 %37
  %45 = load i8, ptr %44, align 1
  %.0..i = tail call i8 @llvm.umax.i8(i8 %42, i8 %45)
  br label %.thread.i

.thread.i:                                        ; preds = %43, %39, %.preheader
  %.1.i = phi i8 [ %.0..i, %43 ], [ %42, %39 ], [ 0, %.preheader ]
  %46 = getelementptr inbounds nuw [0 x i8], ptr %5, i64 0, i64 %indvars.iv.i
  %47 = load i8, ptr %46, align 1
  %.not.i = icmp eq i8 %47, %.1.i
  br i1 %.not.i, label %49, label %48

48:                                               ; preds = %.thread.i
  store i8 %.1.i, ptr %46, align 1
  br label %49

49:                                               ; preds = %48, %.thread.i
  %indvars.iv.next.i = add nsw i64 %indvars.iv.i, -1
  %.not30.i = icmp eq i64 %indvars.iv.i, 0
  br i1 %.not30.i, label %fsm_rebuild_page.exit, label %.preheader, !llvm.loop !6

fsm_rebuild_page.exit:                            ; preds = %49, %.thread, %10
  %.0 = phi i1 [ false, %10 ], [ true, %.thread ], [ true, %49 ]
  ret i1 %.0
}